; Function Attrs: mustprogress nofree norecurse nosync nounwind memory(argmem: readwrite) uwtable
define void @_ZN10duckdb_hll14hllRawRegHistoEPhPi(ptr noundef readonly captures(none) %0, ptr noundef captures(none) %1) local_unnamed_addr #2 {
  br label %3

3:                                                ; preds = %2, %56
  %.024 = phi i32 [ 0, %2 ], [ %58, %56 ]
  %.02223 = phi ptr [ %0, %2 ], [ %57, %56 ]
  %4 = load i64, ptr %.02223, align 8
  %5 = icmp eq i64 %4, 0
  br i1 %5, label %6, label %9

6:                                                ; preds = %3
  %7 = load i32, ptr %1, align 4, !tbaa !11
  %8 = add nsw i32 %7, 8
  store i32 %8, ptr %1, align 4, !tbaa !11
  br label %56

9:                                                ; preds = %3
  %10 = and i64 %4, 255
  %11 = getelementptr inbounds nuw i32, ptr %1, i64 %10
  %12 = load i32, ptr %11, align 4, !tbaa !11
  %13 = add nsw i32 %12, 1
  store i32 %13, ptr %11, align 4, !tbaa !11
  %14 = getelementptr inbounds nuw i8, ptr %.02223, i64 1
  %15 = load i8, ptr %14, align 1, !tbaa !9
  %16 = zext i8 %15 to i64
  %17 = getelementptr inbounds nuw i32, ptr %1, i64 %16
  %18 = load i32, ptr %17, align 4, !tbaa !11
  %19 = add nsw i32 %18, 1
  store i32 %19, ptr %17, align 4, !tbaa !11
  %20 = getelementptr inbounds nuw i8, ptr %.02223, i64 2
  %21 = load i8, ptr %20, align 1, !tbaa !9
  %22 = zext i8 %21 to i64
  %23 = getelementptr inbounds nuw i32, ptr %1, i64 %22
  %24 = load i32, ptr %23, align 4, !tbaa !11
  %25 = add nsw i32 %24, 1
  store i32 %25, ptr %23, align 4, !tbaa !11
  %26 = getelementptr inbounds nuw i8, ptr %.02223, i64 3
  %27 = load i8, ptr %26, align 1, !tbaa !9
  %28 = zext i8 %27 to i64
  %29 = getelementptr inbounds nuw i32, ptr %1, i64 %28
  %30 = load i32, ptr %29, align 4, !tbaa !11
  %31 = add nsw i32 %30, 1
  store i32 %31, ptr %29, align 4, !tbaa !11
  %32 = getelementptr inbounds nuw i8, ptr %.02223, i64 4
  %33 = load i8, ptr %32, align 1, !tbaa !9
  %34 = zext i8 %33 to i64
  %35 = getelementptr inbounds nuw i32, ptr %1, i64 %34
  %36 = load i32, ptr %35, align 4, !tbaa !11
  %37 = add nsw i32 %36, 1
  store i32 %37, ptr %35, align 4, !tbaa !11
  %38 = getelementptr inbounds nuw i8, ptr %.02223, i64 5
  %39 = load i8, ptr %38, align 1, !tbaa !9
  %40 = zext i8 %39 to i64
  %41 = getelementptr inbounds nuw i32, ptr %1, i64 %40
  %42 = load i32, ptr %41, align 4, !tbaa !11
  %43 = add nsw i32 %42, 1
  store i32 %43, ptr %41, align 4, !tbaa !11
  %44 = getelementptr inbounds nuw i8, ptr %.02223, i64 6
  %45 = load i8, ptr %44, align 1, !tbaa !9
  %46 = zext i8 %45 to i64
  %47 = getelementptr inbounds nuw i32, ptr %1, i64 %46
  %48 = load i32, ptr %47, align 4, !tbaa !11
  %49 = add nsw i32 %48, 1
  store i32 %49, ptr %47, align 4, !tbaa !11
  %50 = getelementptr inbounds nuw i8, ptr %.02223, i64 7
  %51 = load i8, ptr %50, align 1, !tbaa !9
  %52 = zext i8 %51 to i64
  %53 = getelementptr inbounds nuw i32, ptr %1, i64 %52
  %54 = load i32, ptr %53, align 4, !tbaa !11
  %55 = add nsw i32 %54, 1
  store i32 %55, ptr %53, align 4, !tbaa !11
  br label %56

56:                                               ; preds = %9, %6
  %57 = getelementptr inbounds nuw i8, ptr %.02223, i64 8
  %58 = add nuw nsw i32 %.024, 1
  %exitcond.not = icmp eq i32 %58, 512
  br i1 %exitcond.not, label %59, label %3, !llvm.loop !33

59:                                               ; preds = %56
  ret void
}